; ModuleID = '19/274.c'
source_filename = "19/274.c"
target datalayout = "e-m:e-p270:32:32-p271:32:32-p272:64:64-i64:64-f80:128-n8:16:32:64-S128"
target triple = "x86_64-pc-linux-gnu"

@.str = private unnamed_addr constant [5 x i8] c"%s%s\00", align 1
@.str.1 = private unnamed_addr constant [3 x i8] c"%s\00", align 1
@.str.2 = private unnamed_addr constant [3 x i8] c"%c\00", align 1
@.str.3 = private unnamed_addr constant [4 x i8] c" %s\00", align 1
@.str.4 = private unnamed_addr constant [2 x i8] c" \00", align 1

; Function Attrs: noinline nounwind uwtable
define dso_local i32 @check(i8* %0, i8* %1, i32 %2, i32 %3) #0 {
  %5 = alloca i8*, align 8
  %6 = alloca i8*, align 8
  %7 = alloca i32, align 4
  %8 = alloca i32, align 4
  %9 = alloca i32, align 4
  %10 = alloca i32, align 4
  store i8* %0, i8** %5, align 8
  store i8* %1, i8** %6, align 8
  store i32 %2, i32* %7, align 4
  store i32 %3, i32* %8, align 4
  store i32 0, i32* %9, align 4
  br label %11

11:                                               ; preds = %34, %4
  %12 = load i32, i32* %9, align 4
  %13 = load i32, i32* %7, align 4
  %14 = icmp sle i32 %12, %13
  br i1 %14, label %15, label %37

15:                                               ; preds = %11
  %16 = load i8*, i8** %5, align 8
  %17 = load i32, i32* %8, align 4
  %18 = load i32, i32* %9, align 4
  %19 = add nsw i32 %17, %18
  %20 = sext i32 %19 to i64
  %21 = getelementptr inbounds i8, i8* %16, i64 %20
  %22 = load i8, i8* %21, align 1
  %23 = sext i8 %22 to i32
  %24 = load i8*, i8** %6, align 8
  %25 = load i32, i32* %9, align 4
  %26 = sext i32 %25 to i64
  %27 = getelementptr inbounds i8, i8* %24, i64 %26
  %28 = load i8, i8* %27, align 1
  %29 = sext i8 %28 to i32
  %30 = icmp eq i32 %23, %29
  br i1 %30, label %31, label %32

31:                                               ; preds = %15
  store i32 1, i32* %10, align 4
  br label %33

32:                                               ; preds = %15
  store i32 0, i32* %10, align 4
  br label %37

33:                                               ; preds = %31
  br label %34

34:                                               ; preds = %33
  %35 = load i32, i32* %9, align 4
  %36 = add nsw i32 %35, 1
  store i32 %36, i32* %9, align 4
  br label %11

37:                                               ; preds = %32, %11
  %38 = load i32, i32* %10, align 4
  ret i32 %38
}

; Function Attrs: noinline nounwind uwtable
define dso_local void @main() #0 {
  %1 = alloca [100 x i8], align 16
  %2 = alloca [100 x i8], align 16
  %3 = alloca [100 x i8], align 16
  %4 = alloca i32, align 4
  %5 = alloca i32, align 4
  %6 = alloca i32, align 4
  store i32 0, i32* %4, align 4
  br label %7

7:                                                ; preds = %20, %0
  %8 = load i32, i32* %4, align 4
  %9 = icmp slt i32 %8, 100
  br i1 %9, label %10, label %23

10:                                               ; preds = %7
  %11 = load i32, i32* %4, align 4
  %12 = sext i32 %11 to i64
  %13 = getelementptr inbounds [100 x i8], [100 x i8]* %1, i64 0, i64 %12
  store i8 0, i8* %13, align 1
  %14 = load i32, i32* %4, align 4
  %15 = sext i32 %14 to i64
  %16 = getelementptr inbounds [100 x i8], [100 x i8]* %2, i64 0, i64 %15
  store i8 0, i8* %16, align 1
  %17 = load i32, i32* %4, align 4
  %18 = sext i32 %17 to i64
  %19 = getelementptr inbounds [100 x i8], [100 x i8]* %3, i64 0, i64 %18
  store i8 0, i8* %19, align 1
  br label %20

20:                                               ; preds = %10
  %21 = load i32, i32* %4, align 4
  %22 = add nsw i32 %21, 1
  store i32 %22, i32* %4, align 4
  br label %7

23:                                               ; preds = %7
  %24 = getelementptr inbounds [100 x i8], [100 x i8]* %1, i64 0, i64 0
  %25 = call i32 (i8*, ...) bitcast (i32 (...)* @gets to i32 (i8*, ...)*)(i8* %24)
  %26 = getelementptr inbounds [100 x i8], [100 x i8]* %2, i64 0, i64 0
  %27 = getelementptr inbounds [100 x i8], [100 x i8]* %3, i64 0, i64 0
  %28 = call i32 (i8*, ...) @__isoc99_scanf(i8* getelementptr inbounds ([5 x i8], [5 x i8]* @.str, i64 0, i64 0), i8* %26, i8* %27)
  %29 = getelementptr inbounds [100 x i8], [100 x i8]* %1, i64 0, i64 0
  %30 = call i64 @strlen(i8* %29) #3
  %31 = trunc i64 %30 to i32
  store i32 %31, i32* %5, align 4
  %32 = load i32, i32* %5, align 4
  %33 = sext i32 %32 to i64
  %34 = getelementptr inbounds [100 x i8], [100 x i8]* %1, i64 0, i64 %33
  store i8 32, i8* %34, align 1
  %35 = getelementptr inbounds [100 x i8], [100 x i8]* %2, i64 0, i64 0
  %36 = call i64 @strlen(i8* %35) #3
  %37 = trunc i64 %36 to i32
  store i32 %37, i32* %5, align 4
  %38 = load i32, i32* %5, align 4
  %39 = sext i32 %38 to i64
  %40 = getelementptr inbounds [100 x i8], [100 x i8]* %2, i64 0, i64 %39
  store i8 32, i8* %40, align 1
  %41 = getelementptr inbounds [100 x i8], [100 x i8]* %1, i64 0, i64 0
  %42 = getelementptr inbounds [100 x i8], [100 x i8]* %2, i64 0, i64 0
  %43 = load i32, i32* %5, align 4
  %44 = call i32 @check(i8* %41, i8* %42, i32 %43, i32 0)
  %45 = icmp ne i32 %44, 0
  br i1 %45, label %46, label %49

46:                                               ; preds = %23
  %47 = getelementptr inbounds [100 x i8], [100 x i8]* %3, i64 0, i64 0
  %48 = call i32 (i8*, ...) @printf(i8* getelementptr inbounds ([3 x i8], [3 x i8]* @.str.1, i64 0, i64 0), i8* %47)
  br label %67

49:                                               ; preds = %23
  store i32 0, i32* %4, align 4
  br label %50

50:                                               ; preds = %59, %49
  %51 = load i32, i32* %4, align 4
  %52 = sext i32 %51 to i64
  %53 = getelementptr inbounds [100 x i8], [100 x i8]* %1, i64 0, i64 %52
  %54 = load i8, i8* %53, align 1
  %55 = sext i8 %54 to i32
  %56 = call i32 (i8*, ...) @printf(i8* getelementptr inbounds ([3 x i8], [3 x i8]* @.str.2, i64 0, i64 0), i32 %55)
  %57 = load i32, i32* %4, align 4
  %58 = add nsw i32 %57, 1
  store i32 %58, i32* %4, align 4
  br label %59

59:                                               ; preds = %50
  %60 = load i32, i32* %4, align 4
  %61 = sext i32 %60 to i64
  %62 = getelementptr inbounds [100 x i8], [100 x i8]* %1, i64 0, i64 %61
  %63 = load i8, i8* %62, align 1
  %64 = sext i8 %63 to i32
  %65 = icmp ne i32 %64, 32
  br i1 %65, label %50, label %66

66:                                               ; preds = %59
  br label %67

67:                                               ; preds = %66, %46
  store i32 0, i32* %4, align 4
  br label %68

68:                                               ; preds = %75, %67
  %69 = load i32, i32* %4, align 4
  %70 = sext i32 %69 to i64
  %71 = getelementptr inbounds [100 x i8], [100 x i8]* %1, i64 0, i64 %70
  %72 = load i8, i8* %71, align 1
  %73 = sext i8 %72 to i32
  %74 = icmp ne i32 %73, 32
  br i1 %74, label %75, label %78

75:                                               ; preds = %68
  %76 = load i32, i32* %4, align 4
  %77 = add nsw i32 %76, 1
  store i32 %77, i32* %4, align 4
  br label %68

78:                                               ; preds = %68
  %79 = load i32, i32* %4, align 4
  %80 = add nsw i32 %79, 1
  store i32 %80, i32* %4, align 4
  br label %81

81:                                               ; preds = %135, %78
  %82 = load i32, i32* %4, align 4
  %83 = icmp slt i32 %82, 100
  br i1 %83, label %84, label %138

84:                                               ; preds = %81
  %85 = load i32, i32* %4, align 4
  store i32 %85, i32* %6, align 4
  %86 = load i32, i32* %4, align 4
  %87 = sext i32 %86 to i64
  %88 = getelementptr inbounds [100 x i8], [100 x i8]* %1, i64 0, i64 %87
  %89 = load i8, i8* %88, align 1
  %90 = sext i8 %89 to i32
  %91 = icmp eq i32 %90, 0
  br i1 %91, label %92, label %93

92:                                               ; preds = %84
  br label %138

93:                                               ; preds = %84
  %94 = getelementptr inbounds [100 x i8], [100 x i8]* %1, i64 0, i64 0
  %95 = getelementptr inbounds [100 x i8], [100 x i8]* %2, i64 0, i64 0
  %96 = load i32, i32* %5, align 4
  %97 = load i32, i32* %4, align 4
  %98 = call i32 @check(i8* %94, i8* %95, i32 %96, i32 %97)
  %99 = icmp ne i32 %98, 0
  br i1 %99, label %100, label %103

100:                                              ; preds = %93
  %101 = getelementptr inbounds [100 x i8], [100 x i8]* %3, i64 0, i64 0
  %102 = call i32 (i8*, ...) @printf(i8* getelementptr inbounds ([4 x i8], [4 x i8]* @.str.3, i64 0, i64 0), i8* %101)
  br label %122

103:                                              ; preds = %93
  %104 = call i32 (i8*, ...) @printf(i8* getelementptr inbounds ([2 x i8], [2 x i8]* @.str.4, i64 0, i64 0))
  br label %105

105:                                              ; preds = %114, %103
  %106 = load i32, i32* %4, align 4
  %107 = sext i32 %106 to i64
  %108 = getelementptr inbounds [100 x i8], [100 x i8]* %1, i64 0, i64 %107
  %109 = load i8, i8* %108, align 1
  %110 = sext i8 %109 to i32
  %111 = call i32 (i8*, ...) @printf(i8* getelementptr inbounds ([3 x i8], [3 x i8]* @.str.2, i64 0, i64 0), i32 %110)
  %112 = load i32, i32* %4, align 4
  %113 = add nsw i32 %112, 1
  store i32 %113, i32* %4, align 4
  br label %114

114:                                              ; preds = %105
  %115 = load i32, i32* %4, align 4
  %116 = sext i32 %115 to i64
  %117 = getelementptr inbounds [100 x i8], [100 x i8]* %1, i64 0, i64 %116
  %118 = load i8, i8* %117, align 1
  %119 = sext i8 %118 to i32
  %120 = icmp ne i32 %119, 32
  br i1 %120, label %105, label %121

121:                                              ; preds = %114
  br label %122

122:                                              ; preds = %121, %100
  br label %123

123:                                              ; preds = %122
  %124 = load i32, i32* %6, align 4
  store i32 %124, i32* %4, align 4
  br label %125

125:                                              ; preds = %132, %123
  %126 = load i32, i32* %4, align 4
  %127 = sext i32 %126 to i64
  %128 = getelementptr inbounds [100 x i8], [100 x i8]* %1, i64 0, i64 %127
  %129 = load i8, i8* %128, align 1
  %130 = sext i8 %129 to i32
  %131 = icmp ne i32 %130, 32
  br i1 %131, label %132, label %135

132:                                              ; preds = %125
  %133 = load i32, i32* %4, align 4
  %134 = add nsw i32 %133, 1
  store i32 %134, i32* %4, align 4
  br label %125

135:                                              ; preds = %125
  %136 = load i32, i32* %4, align 4
  %137 = add nsw i32 %136, 1
  store i32 %137, i32* %4, align 4
  br label %81

138:                                              ; preds = %92, %81
  ret void
}

declare dso_local i32 @gets(...) #1

declare dso_local i32 @__isoc99_scanf(i8*, ...) #1

; Function Attrs: nounwind readonly
declare dso_local i64 @strlen(i8*) #2

declare dso_local i32 @printf(i8*, ...) #1


!llvm.module.flags = !{!0}
!llvm.ident = !{!1}

!0 = !{i32 1, !"wchar_size", i32 4}
!1 = !{!"clang version 10.0.0-4ubuntu1 "}
